; Function Attrs: nounwind uwtable
define internal fastcc void @Abc_NtkStrashPerform(ptr noundef %0, ptr noundef %1, i32 noundef %2, i32 noundef %3) unnamed_addr #0 {
  %5 = tail call ptr @Abc_NtkDfsIter(ptr noundef %0, i32 noundef %2) #11
  %6 = getelementptr i8, ptr %5, i64 4
  %.val18 = load i32, ptr %6, align 4
  %7 = icmp sgt i32 %.val18, 0
  br i1 %7, label %.lr.ph, label %.critedge

.lr.ph:                                           ; preds = %4
  %8 = getelementptr i8, ptr %5, i64 8
  br label %9

9:                                                ; preds = %.lr.ph, %38
  %indvars.iv = phi i64 [ 0, %.lr.ph ], [ %indvars.iv.next, %38 ]
  %.val14 = load ptr, ptr %8, align 8
  %10 = getelementptr inbounds nuw ptr, ptr %.val14, i64 %indvars.iv
  %11 = load ptr, ptr %10, align 8
  %12 = load ptr, ptr %11, align 8
  %13 = getelementptr i8, ptr %12, i64 4
  %.val5.i = load i32, ptr %13, align 4
  %.not.i = icmp eq i32 %.val5.i, 4
  br i1 %.not.i, label %14, label %Abc_ObjIsBarBuf.exit.thread

14:                                               ; preds = %9
  %15 = getelementptr i8, ptr %11, i64 20
  %.val.i = load i32, ptr %15, align 4
  %16 = and i32 %.val.i, 15
  %.not7.i = icmp eq i32 %16, 7
  br i1 %.not7.i, label %17, label %Abc_ObjIsBarBuf.exit.thread

17:                                               ; preds = %14
  %18 = getelementptr i8, ptr %11, i64 28
  %.val6.i = load i32, ptr %18, align 4
  %19 = icmp eq i32 %.val6.i, 1
  br i1 %19, label %Abc_ObjIsBarBuf.exit, label %Abc_ObjIsBarBuf.exit.thread

Abc_ObjIsBarBuf.exit:                             ; preds = %17
  %20 = getelementptr inbounds nuw i8, ptr %11, i64 56
  %21 = load ptr, ptr %20, align 8
  %.not = icmp eq ptr %21, null
  br i1 %.not, label %22, label %Abc_ObjIsBarBuf.exit.thread

22:                                               ; preds = %Abc_ObjIsBarBuf.exit
  %23 = getelementptr i8, ptr %11, i64 32
  %.val2.i = load ptr, ptr %23, align 8
  %24 = getelementptr i8, ptr %12, i64 32
  %.val.val.i = load ptr, ptr %24, align 8
  %.val2.val.i = load i32, ptr %.val2.i, align 4
  %25 = getelementptr i8, ptr %.val.val.i, i64 8
  %.val.val.val.i = load ptr, ptr %25, align 8
  %26 = sext i32 %.val2.val.i to i64
  %27 = getelementptr inbounds ptr, ptr %.val.val.val.i, i64 %26
  %28 = load ptr, ptr %27, align 8
  %29 = getelementptr inbounds nuw i8, ptr %28, i64 64
  %30 = load ptr, ptr %29, align 8
  %31 = lshr i32 %.val.i, 10
  %32 = and i32 %31, 1
  %33 = ptrtoint ptr %30 to i64
  %34 = zext nneg i32 %32 to i64
  %35 = xor i64 %34, %33
  %36 = inttoptr i64 %35 to ptr
  br label %38

Abc_ObjIsBarBuf.exit.thread:                      ; preds = %9, %14, %17, %Abc_ObjIsBarBuf.exit
  %37 = tail call ptr @Abc_NodeStrash(ptr noundef %1, ptr noundef nonnull %11, i32 poison)
  br label %38

38:                                               ; preds = %22, %Abc_ObjIsBarBuf.exit.thread
  %.sink = phi ptr [ %36, %22 ], [ %37, %Abc_ObjIsBarBuf.exit.thread ]
  %39 = getelementptr inbounds nuw i8, ptr %11, i64 64
  store ptr %.sink, ptr %39, align 8
  %indvars.iv.next = add nuw nsw i64 %indvars.iv, 1
  %.val = load i32, ptr %6, align 4
  %40 = sext i32 %.val to i64
  %41 = icmp slt i64 %indvars.iv.next, %40
  br i1 %41, label %9, label %.critedge, !llvm.loop !12

.critedge:                                        ; preds = %38, %4
  %42 = getelementptr inbounds nuw i8, ptr %5, i64 8
  %43 = load ptr, ptr %42, align 8
  %.not.i16 = icmp eq ptr %43, null
  br i1 %.not.i16, label %Vec_PtrFree.exit, label %44

44:                                               ; preds = %.critedge
  tail call void @free(ptr noundef nonnull %43) #11
  br label %Vec_PtrFree.exit

Vec_PtrFree.exit:                                 ; preds = %.critedge, %44
  tail call void @free(ptr noundef nonnull %5) #11
  ret void
}